; ModuleID = '44/1054.c'
source_filename = "44/1054.c"
target datalayout = "e-m:e-p270:32:32-p271:32:32-p272:64:64-i64:64-f80:128-n8:16:32:64-S128"
target triple = "x86_64-pc-linux-gnu"

@.str = private unnamed_addr constant [3 x i8] c"%d\00", align 1
@.str.1 = private unnamed_addr constant [4 x i8] c"%d\0A\00", align 1

; Function Attrs: noinline nounwind uwtable
define dso_local i32 @f(i32 %0) #0 {
  %2 = alloca i32, align 4
  %3 = alloca i32, align 4
  %4 = alloca i32, align 4
  %5 = alloca i32, align 4
  %6 = alloca i32, align 4
  %7 = alloca i32, align 4
  %8 = alloca [5 x i32], align 16
  store i32 %0, i32* %2, align 4
  store i32 1, i32* %3, align 4
  store i32 0, i32* %4, align 4
  %9 = load i32, i32* %2, align 4
  %10 = icmp slt i32 %9, 0
  br i1 %10, label %11, label %12

11:                                               ; preds = %1
  store i32 -1, i32* %3, align 4
  br label %12

12:                                               ; preds = %11, %1
  %13 = load i32, i32* %2, align 4
  %14 = sitofp i32 %13 to double
  %15 = call double @llvm.fabs.f64(double %14)
  %16 = fptosi double %15 to i32
  store i32 %16, i32* %2, align 4
  store i32 4, i32* %6, align 4
  br label %17

17:                                               ; preds = %44, %12
  %18 = load i32, i32* %6, align 4
  %19 = icmp sge i32 %18, 0
  br i1 %19, label %20, label %47

20:                                               ; preds = %17
  %21 = load i32, i32* %2, align 4
  %22 = sitofp i32 %21 to double
  %23 = load i32, i32* %6, align 4
  %24 = sitofp i32 %23 to double
  %25 = call double @pow(double 1.000000e+01, double %24) #4
  %26 = fdiv double %22, %25
  %27 = fptosi double %26 to i32
  %28 = load i32, i32* %6, align 4
  %29 = sext i32 %28 to i64
  %30 = getelementptr inbounds [5 x i32], [5 x i32]* %8, i64 0, i64 %29
  store i32 %27, i32* %30, align 4
  %31 = load i32, i32* %2, align 4
  %32 = sitofp i32 %31 to double
  %33 = load i32, i32* %6, align 4
  %34 = sext i32 %33 to i64
  %35 = getelementptr inbounds [5 x i32], [5 x i32]* %8, i64 0, i64 %34
  %36 = load i32, i32* %35, align 4
  %37 = sitofp i32 %36 to double
  %38 = load i32, i32* %6, align 4
  %39 = sitofp i32 %38 to double
  %40 = call double @pow(double 1.000000e+01, double %39) #4
  %41 = fmul double %37, %40
  %42 = fsub double %32, %41
  %43 = fptosi double %42 to i32
  store i32 %43, i32* %2, align 4
  br label %44

44:                                               ; preds = %20
  %45 = load i32, i32* %6, align 4
  %46 = add nsw i32 %45, -1
  store i32 %46, i32* %6, align 4
  br label %17

47:                                               ; preds = %17
  store i32 4, i32* %6, align 4
  br label %48

48:                                               ; preds = %59, %47
  %49 = load i32, i32* %6, align 4
  %50 = icmp sge i32 %49, 0
  br i1 %50, label %51, label %62

51:                                               ; preds = %48
  %52 = load i32, i32* %6, align 4
  %53 = sext i32 %52 to i64
  %54 = getelementptr inbounds [5 x i32], [5 x i32]* %8, i64 0, i64 %53
  %55 = load i32, i32* %54, align 4
  %56 = icmp ne i32 %55, 0
  br i1 %56, label %57, label %58

57:                                               ; preds = %51
  br label %62

58:                                               ; preds = %51
  br label %59

59:                                               ; preds = %58
  %60 = load i32, i32* %6, align 4
  %61 = add nsw i32 %60, -1
  store i32 %61, i32* %6, align 4
  br label %48

62:                                               ; preds = %57, %48
  store i32 0, i32* %5, align 4
  br label %63

63:                                               ; preds = %74, %62
  %64 = load i32, i32* %5, align 4
  %65 = icmp slt i32 %64, 5
  br i1 %65, label %66, label %77

66:                                               ; preds = %63
  %67 = load i32, i32* %5, align 4
  %68 = sext i32 %67 to i64
  %69 = getelementptr inbounds [5 x i32], [5 x i32]* %8, i64 0, i64 %68
  %70 = load i32, i32* %69, align 4
  %71 = icmp ne i32 %70, 0
  br i1 %71, label %72, label %73

72:                                               ; preds = %66
  br label %77

73:                                               ; preds = %66
  br label %74

74:                                               ; preds = %73
  %75 = load i32, i32* %5, align 4
  %76 = add nsw i32 %75, 1
  store i32 %76, i32* %5, align 4
  br label %63

77:                                               ; preds = %72, %63
  %78 = load i32, i32* %5, align 4
  store i32 %78, i32* %7, align 4
  br label %79

79:                                               ; preds = %99, %77
  %80 = load i32, i32* %7, align 4
  %81 = load i32, i32* %6, align 4
  %82 = icmp sle i32 %80, %81
  br i1 %82, label %83, label %102

83:                                               ; preds = %79
  %84 = load i32, i32* %7, align 4
  %85 = sext i32 %84 to i64
  %86 = getelementptr inbounds [5 x i32], [5 x i32]* %8, i64 0, i64 %85
  %87 = load i32, i32* %86, align 4
  %88 = sitofp i32 %87 to double
  %89 = load i32, i32* %6, align 4
  %90 = load i32, i32* %7, align 4
  %91 = sub nsw i32 %89, %90
  %92 = sitofp i32 %91 to double
  %93 = call double @pow(double 1.000000e+01, double %92) #4
  %94 = fmul double %88, %93
  %95 = load i32, i32* %4, align 4
  %96 = sitofp i32 %95 to double
  %97 = fadd double %94, %96
  %98 = fptosi double %97 to i32
  store i32 %98, i32* %4, align 4
  br label %99

99:                                               ; preds = %83
  %100 = load i32, i32* %7, align 4
  %101 = add nsw i32 %100, 1
  store i32 %101, i32* %7, align 4
  br label %79

102:                                              ; preds = %79
  %103 = load i32, i32* %4, align 4
  %104 = load i32, i32* %3, align 4
  %105 = mul nsw i32 %103, %104
  store i32 %105, i32* %4, align 4
  %106 = load i32, i32* %4, align 4
  ret i32 %106
}

; Function Attrs: nounwind readnone speculatable willreturn
declare double @llvm.fabs.f64(double) #1

; Function Attrs: nounwind
declare dso_local double @pow(double, double) #2

; Function Attrs: noinline nounwind uwtable
define dso_local void @main() #0 {
  %1 = alloca i32, align 4
  %2 = alloca [6 x i32], align 16
  store i32 0, i32* %1, align 4
  br label %3

3:                                                ; preds = %11, %0
  %4 = load i32, i32* %1, align 4
  %5 = icmp slt i32 %4, 6
  br i1 %5, label %6, label %14

6:                                                ; preds = %3
  %7 = load i32, i32* %1, align 4
  %8 = sext i32 %7 to i64
  %9 = getelementptr inbounds [6 x i32], [6 x i32]* %2, i64 0, i64 %8
  %10 = call i32 (i8*, ...) @__isoc99_scanf(i8* getelementptr inbounds ([3 x i8], [3 x i8]* @.str, i64 0, i64 0), i32* %9)
  br label %11

11:                                               ; preds = %6
  %12 = load i32, i32* %1, align 4
  %13 = add nsw i32 %12, 1
  store i32 %13, i32* %1, align 4
  br label %3

14:                                               ; preds = %3
  store i32 0, i32* %1, align 4
  br label %15

15:                                               ; preds = %25, %14
  %16 = load i32, i32* %1, align 4
  %17 = icmp slt i32 %16, 6
  br i1 %17, label %18, label %28

18:                                               ; preds = %15
  %19 = load i32, i32* %1, align 4
  %20 = sext i32 %19 to i64
  %21 = getelementptr inbounds [6 x i32], [6 x i32]* %2, i64 0, i64 %20
  %22 = load i32, i32* %21, align 4
  %23 = call i32 @f(i32 %22)
  %24 = call i32 (i8*, ...) @printf(i8* getelementptr inbounds ([4 x i8], [4 x i8]* @.str.1, i64 0, i64 0), i32 %23)
  br label %25

25:                                               ; preds = %18
  %26 = load i32, i32* %1, align 4
  %27 = add nsw i32 %26, 1
  store i32 %27, i32* %1, align 4
  br label %15

28:                                               ; preds = %15
  ret void
}

declare dso_local i32 @__isoc99_scanf(i8*, ...) #3

declare dso_local i32 @printf(i8*, ...) #3


!llvm.module.flags = !{!0}
!llvm.ident = !{!1}

!0 = !{i32 1, !"wchar_size", i32 4}
!1 = !{!"clang version 10.0.0-4ubuntu1 "}
